#include <math.h>
#include <stdio.h>
#include <stdlib.h>
#include <string.h>

void main()
{
	int a[101][101],b[101][101],i,j,k,c[101][101]={0},x1,y1,x2,y2;
    scanf("%d %d",&x1,&y1);
	for(i=1;i<=x1;i++)
	{
		for(j=1;j<=y1;j++)
		{
			scanf("%d",&a[i][j]);
		}
	}
	scanf("%d %d",&x2,&y2);
	for(i=1;i<=y1;i++)
	{
		for(j=1;j<=y2;j++)
		{
			scanf("%d",&b[i][j]);
		}
	}
	for(i=1;i<=x1;i++)
	{
		for(j=1;j<=y2;j++)
		{
			for(k=1;k<=y1;k++)
			{
				c[i][j]=c[i][j]+a[i][k]*b[k][j];
			}
		}
	}
	for(i=1;i<=x1-1;i++)
	{
		for(j=1;j<=y2-1;j++)
		{
			printf("%d ",c[i][j]);
		}
		printf("%d\n",c[i][y2]);
	}
	for(j=1;j<=y2-1;j++)
	{
		printf("%d ",c[x1][j]);
	}
	printf("%d",c[x1][y2]);
}