; ModuleID = '63/952.c'
source_filename = "63/952.c"
target datalayout = "e-m:e-p270:32:32-p271:32:32-p272:64:64-i64:64-f80:128-n8:16:32:64-S128"
target triple = "x86_64-pc-linux-gnu"

@.str = private unnamed_addr constant [6 x i8] c"%d %d\00", align 1
@.str.1 = private unnamed_addr constant [3 x i8] c"%d\00", align 1
@.str.2 = private unnamed_addr constant [4 x i8] c"%d \00", align 1
@.str.3 = private unnamed_addr constant [4 x i8] c"%d\0A\00", align 1

; Function Attrs: noinline nounwind uwtable
define dso_local void @main() #0 {
  %1 = alloca [101 x [101 x i32]], align 16
  %2 = alloca [101 x [101 x i32]], align 16
  %3 = alloca i32, align 4
  %4 = alloca i32, align 4
  %5 = alloca i32, align 4
  %6 = alloca [101 x [101 x i32]], align 16
  %7 = alloca i32, align 4
  %8 = alloca i32, align 4
  %9 = alloca i32, align 4
  %10 = alloca i32, align 4
  %11 = bitcast [101 x [101 x i32]]* %6 to i8*
  call void @llvm.memset.p0i8.i64(i8* align 16 %11, i8 0, i64 40804, i1 false)
  %12 = call i32 (i8*, ...) @__isoc99_scanf(i8* getelementptr inbounds ([6 x i8], [6 x i8]* @.str, i64 0, i64 0), i32* %7, i32* %8)
  store i32 1, i32* %3, align 4
  br label %13

13:                                               ; preds = %34, %0
  %14 = load i32, i32* %3, align 4
  %15 = load i32, i32* %7, align 4
  %16 = icmp sle i32 %14, %15
  br i1 %16, label %17, label %37

17:                                               ; preds = %13
  store i32 1, i32* %4, align 4
  br label %18

18:                                               ; preds = %30, %17
  %19 = load i32, i32* %4, align 4
  %20 = load i32, i32* %8, align 4
  %21 = icmp sle i32 %19, %20
  br i1 %21, label %22, label %33

22:                                               ; preds = %18
  %23 = load i32, i32* %3, align 4
  %24 = sext i32 %23 to i64
  %25 = getelementptr inbounds [101 x [101 x i32]], [101 x [101 x i32]]* %1, i64 0, i64 %24
  %26 = load i32, i32* %4, align 4
  %27 = sext i32 %26 to i64
  %28 = getelementptr inbounds [101 x i32], [101 x i32]* %25, i64 0, i64 %27
  %29 = call i32 (i8*, ...) @__isoc99_scanf(i8* getelementptr inbounds ([3 x i8], [3 x i8]* @.str.1, i64 0, i64 0), i32* %28)
  br label %30

30:                                               ; preds = %22
  %31 = load i32, i32* %4, align 4
  %32 = add nsw i32 %31, 1
  store i32 %32, i32* %4, align 4
  br label %18

33:                                               ; preds = %18
  br label %34

34:                                               ; preds = %33
  %35 = load i32, i32* %3, align 4
  %36 = add nsw i32 %35, 1
  store i32 %36, i32* %3, align 4
  br label %13

37:                                               ; preds = %13
  %38 = call i32 (i8*, ...) @__isoc99_scanf(i8* getelementptr inbounds ([6 x i8], [6 x i8]* @.str, i64 0, i64 0), i32* %9, i32* %10)
  store i32 1, i32* %3, align 4
  br label %39

39:                                               ; preds = %60, %37
  %40 = load i32, i32* %3, align 4
  %41 = load i32, i32* %8, align 4
  %42 = icmp sle i32 %40, %41
  br i1 %42, label %43, label %63

43:                                               ; preds = %39
  store i32 1, i32* %4, align 4
  br label %44

44:                                               ; preds = %56, %43
  %45 = load i32, i32* %4, align 4
  %46 = load i32, i32* %10, align 4
  %47 = icmp sle i32 %45, %46
  br i1 %47, label %48, label %59

48:                                               ; preds = %44
  %49 = load i32, i32* %3, align 4
  %50 = sext i32 %49 to i64
  %51 = getelementptr inbounds [101 x [101 x i32]], [101 x [101 x i32]]* %2, i64 0, i64 %50
  %52 = load i32, i32* %4, align 4
  %53 = sext i32 %52 to i64
  %54 = getelementptr inbounds [101 x i32], [101 x i32]* %51, i64 0, i64 %53
  %55 = call i32 (i8*, ...) @__isoc99_scanf(i8* getelementptr inbounds ([3 x i8], [3 x i8]* @.str.1, i64 0, i64 0), i32* %54)
  br label %56

56:                                               ; preds = %48
  %57 = load i32, i32* %4, align 4
  %58 = add nsw i32 %57, 1
  store i32 %58, i32* %4, align 4
  br label %44

59:                                               ; preds = %44
  br label %60

60:                                               ; preds = %59
  %61 = load i32, i32* %3, align 4
  %62 = add nsw i32 %61, 1
  store i32 %62, i32* %3, align 4
  br label %39

63:                                               ; preds = %39
  store i32 1, i32* %3, align 4
  br label %64

64:                                               ; preds = %116, %63
  %65 = load i32, i32* %3, align 4
  %66 = load i32, i32* %7, align 4
  %67 = icmp sle i32 %65, %66
  br i1 %67, label %68, label %119

68:                                               ; preds = %64
  store i32 1, i32* %4, align 4
  br label %69

69:                                               ; preds = %112, %68
  %70 = load i32, i32* %4, align 4
  %71 = load i32, i32* %10, align 4
  %72 = icmp sle i32 %70, %71
  br i1 %72, label %73, label %115

73:                                               ; preds = %69
  store i32 1, i32* %5, align 4
  br label %74

74:                                               ; preds = %108, %73
  %75 = load i32, i32* %5, align 4
  %76 = load i32, i32* %8, align 4
  %77 = icmp sle i32 %75, %76
  br i1 %77, label %78, label %111

78:                                               ; preds = %74
  %79 = load i32, i32* %3, align 4
  %80 = sext i32 %79 to i64
  %81 = getelementptr inbounds [101 x [101 x i32]], [101 x [101 x i32]]* %6, i64 0, i64 %80
  %82 = load i32, i32* %4, align 4
  %83 = sext i32 %82 to i64
  %84 = getelementptr inbounds [101 x i32], [101 x i32]* %81, i64 0, i64 %83
  %85 = load i32, i32* %84, align 4
  %86 = load i32, i32* %3, align 4
  %87 = sext i32 %86 to i64
  %88 = getelementptr inbounds [101 x [101 x i32]], [101 x [101 x i32]]* %1, i64 0, i64 %87
  %89 = load i32, i32* %5, align 4
  %90 = sext i32 %89 to i64
  %91 = getelementptr inbounds [101 x i32], [101 x i32]* %88, i64 0, i64 %90
  %92 = load i32, i32* %91, align 4
  %93 = load i32, i32* %5, align 4
  %94 = sext i32 %93 to i64
  %95 = getelementptr inbounds [101 x [101 x i32]], [101 x [101 x i32]]* %2, i64 0, i64 %94
  %96 = load i32, i32* %4, align 4
  %97 = sext i32 %96 to i64
  %98 = getelementptr inbounds [101 x i32], [101 x i32]* %95, i64 0, i64 %97
  %99 = load i32, i32* %98, align 4
  %100 = mul nsw i32 %92, %99
  %101 = add nsw i32 %85, %100
  %102 = load i32, i32* %3, align 4
  %103 = sext i32 %102 to i64
  %104 = getelementptr inbounds [101 x [101 x i32]], [101 x [101 x i32]]* %6, i64 0, i64 %103
  %105 = load i32, i32* %4, align 4
  %106 = sext i32 %105 to i64
  %107 = getelementptr inbounds [101 x i32], [101 x i32]* %104, i64 0, i64 %106
  store i32 %101, i32* %107, align 4
  br label %108

108:                                              ; preds = %78
  %109 = load i32, i32* %5, align 4
  %110 = add nsw i32 %109, 1
  store i32 %110, i32* %5, align 4
  br label %74

111:                                              ; preds = %74
  br label %112

112:                                              ; preds = %111
  %113 = load i32, i32* %4, align 4
  %114 = add nsw i32 %113, 1
  store i32 %114, i32* %4, align 4
  br label %69

115:                                              ; preds = %69
  br label %116

116:                                              ; preds = %115
  %117 = load i32, i32* %3, align 4
  %118 = add nsw i32 %117, 1
  store i32 %118, i32* %3, align 4
  br label %64

119:                                              ; preds = %64
  store i32 1, i32* %3, align 4
  br label %120

120:                                              ; preds = %152, %119
  %121 = load i32, i32* %3, align 4
  %122 = load i32, i32* %7, align 4
  %123 = sub nsw i32 %122, 1
  %124 = icmp sle i32 %121, %123
  br i1 %124, label %125, label %155

125:                                              ; preds = %120
  store i32 1, i32* %4, align 4
  br label %126

126:                                              ; preds = %140, %125
  %127 = load i32, i32* %4, align 4
  %128 = load i32, i32* %10, align 4
  %129 = sub nsw i32 %128, 1
  %130 = icmp sle i32 %127, %129
  br i1 %130, label %131, label %143

131:                                              ; preds = %126
  %132 = load i32, i32* %3, align 4
  %133 = sext i32 %132 to i64
  %134 = getelementptr inbounds [101 x [101 x i32]], [101 x [101 x i32]]* %6, i64 0, i64 %133
  %135 = load i32, i32* %4, align 4
  %136 = sext i32 %135 to i64
  %137 = getelementptr inbounds [101 x i32], [101 x i32]* %134, i64 0, i64 %136
  %138 = load i32, i32* %137, align 4
  %139 = call i32 (i8*, ...) @printf(i8* getelementptr inbounds ([4 x i8], [4 x i8]* @.str.2, i64 0, i64 0), i32 %138)
  br label %140

140:                                              ; preds = %131
  %141 = load i32, i32* %4, align 4
  %142 = add nsw i32 %141, 1
  store i32 %142, i32* %4, align 4
  br label %126

143:                                              ; preds = %126
  %144 = load i32, i32* %3, align 4
  %145 = sext i32 %144 to i64
  %146 = getelementptr inbounds [101 x [101 x i32]], [101 x [101 x i32]]* %6, i64 0, i64 %145
  %147 = load i32, i32* %10, align 4
  %148 = sext i32 %147 to i64
  %149 = getelementptr inbounds [101 x i32], [101 x i32]* %146, i64 0, i64 %148
  %150 = load i32, i32* %149, align 4
  %151 = call i32 (i8*, ...) @printf(i8* getelementptr inbounds ([4 x i8], [4 x i8]* @.str.3, i64 0, i64 0), i32 %150)
  br label %152

152:                                              ; preds = %143
  %153 = load i32, i32* %3, align 4
  %154 = add nsw i32 %153, 1
  store i32 %154, i32* %3, align 4
  br label %120

155:                                              ; preds = %120
  store i32 1, i32* %4, align 4
  br label %156

156:                                              ; preds = %170, %155
  %157 = load i32, i32* %4, align 4
  %158 = load i32, i32* %10, align 4
  %159 = sub nsw i32 %158, 1
  %160 = icmp sle i32 %157, %159
  br i1 %160, label %161, label %173

161:                                              ; preds = %156
  %162 = load i32, i32* %7, align 4
  %163 = sext i32 %162 to i64
  %164 = getelementptr inbounds [101 x [101 x i32]], [101 x [101 x i32]]* %6, i64 0, i64 %163
  %165 = load i32, i32* %4, align 4
  %166 = sext i32 %165 to i64
  %167 = getelementptr inbounds [101 x i32], [101 x i32]* %164, i64 0, i64 %166
  %168 = load i32, i32* %167, align 4
  %169 = call i32 (i8*, ...) @printf(i8* getelementptr inbounds ([4 x i8], [4 x i8]* @.str.2, i64 0, i64 0), i32 %168)
  br label %170

170:                                              ; preds = %161
  %171 = load i32, i32* %4, align 4
  %172 = add nsw i32 %171, 1
  store i32 %172, i32* %4, align 4
  br label %156

173:                                              ; preds = %156
  %174 = load i32, i32* %7, align 4
  %175 = sext i32 %174 to i64
  %176 = getelementptr inbounds [101 x [101 x i32]], [101 x [101 x i32]]* %6, i64 0, i64 %175
  %177 = load i32, i32* %10, align 4
  %178 = sext i32 %177 to i64
  %179 = getelementptr inbounds [101 x i32], [101 x i32]* %176, i64 0, i64 %178
  %180 = load i32, i32* %179, align 4
  %181 = call i32 (i8*, ...) @printf(i8* getelementptr inbounds ([3 x i8], [3 x i8]* @.str.1, i64 0, i64 0), i32 %180)
  ret void
}

; Function Attrs: argmemonly nounwind willreturn
declare void @llvm.memset.p0i8.i64(i8* nocapture writeonly, i8, i64, i1 immarg) #1

declare dso_local i32 @__isoc99_scanf(i8*, ...) #2

declare dso_local i32 @printf(i8*, ...) #2


!llvm.module.flags = !{!0}
!llvm.ident = !{!1}

!0 = !{i32 1, !"wchar_size", i32 4}
!1 = !{!"clang version 10.0.0-4ubuntu1 "}
